; Function Attrs: mustprogress nounwind uwtable
define hidden void @_ZN5ceres8internal11ContextImplD2Ev(ptr noundef nonnull align 8 dereferenceable(1040) %0) unnamed_addr #4 align 2 personality ptr @__gxx_personality_v0 {
  %2 = getelementptr inbounds i8, ptr %0, i64 248
  %3 = load ptr, ptr %2, align 8
  %.not.i = icmp eq ptr %3, null
  br i1 %.not.i, label %6, label %4

4:                                                ; preds = %1
  %5 = invoke i32 @cusolverDnDestroy(ptr noundef nonnull %3)
          to label %.noexc unwind label %.loopexit.split-lp

.noexc:                                           ; preds = %4
  store ptr null, ptr %2, align 8
  br label %6

6:                                                ; preds = %.noexc, %1
  %7 = getelementptr inbounds i8, ptr %0, i64 256
  %8 = load ptr, ptr %7, align 8
  %.not14.i = icmp eq ptr %8, null
  br i1 %.not14.i, label %11, label %9

9:                                                ; preds = %6
  %10 = invoke i32 @cublasDestroy_v2(ptr noundef nonnull %8)
          to label %.noexc1 unwind label %.loopexit.split-lp

.noexc1:                                          ; preds = %9
  store ptr null, ptr %7, align 8
  br label %11

11:                                               ; preds = %.noexc1, %6
  %12 = getelementptr inbounds i8, ptr %0, i64 280
  %13 = load ptr, ptr %12, align 8
  %.not15.i = icmp eq ptr %13, null
  br i1 %.not15.i, label %16, label %14

14:                                               ; preds = %11
  %15 = invoke i32 @cusparseDestroy(ptr noundef nonnull %13)
          to label %.noexc2 unwind label %.loopexit.split-lp

.noexc2:                                          ; preds = %14
  store ptr null, ptr %12, align 8
  br label %16

16:                                               ; preds = %.noexc2, %11
  %.0.ptr19.i = getelementptr inbounds i8, ptr %0, i64 264
  br label %17

17:                                               ; preds = %21, %16
  %.0.ptr21.i = phi ptr [ %.0.ptr19.i, %16 ], [ %.0.ptr.i, %21 ]
  %.0.idx20.i = phi i64 [ 264, %16 ], [ %.0.add.i, %21 ]
  %18 = load ptr, ptr %.0.ptr21.i, align 8
  %.not18.i = icmp eq ptr %18, null
  br i1 %.not18.i, label %21, label %19

19:                                               ; preds = %17
  %20 = invoke i32 @cudaStreamDestroy(ptr noundef nonnull %18)
          to label %.noexc3 unwind label %.loopexit

.noexc3:                                          ; preds = %19
  store ptr null, ptr %.0.ptr21.i, align 8
  br label %21

21:                                               ; preds = %.noexc3, %17
  %.0.add.i = add nuw nsw i64 %.0.idx20.i, 8
  %.0.ptr.i = getelementptr inbounds i8, ptr %0, i64 %.0.add.i
  %.not16.i = icmp eq i64 %.0.add.i, 280
  br i1 %.not16.i, label %22, label %17

22:                                               ; preds = %21
  %23 = getelementptr inbounds i8, ptr %0, i64 288
  store i8 0, ptr %23, align 8
  %24 = getelementptr inbounds i8, ptr %0, i64 8
  tail call void @_ZN5ceres8internal10ThreadPoolD1Ev(ptr noundef nonnull align 8 dereferenceable(240) %24) #11
  tail call void @_ZN5ceres7ContextD2Ev(ptr noundef nonnull align 8 dereferenceable(8) %0) #11
  ret void

.loopexit:                                        ; preds = %19
  %lpad.loopexit = landingpad { ptr, i32 }
          catch ptr null
  br label %25

.loopexit.split-lp:                               ; preds = %4, %9, %14
  %lpad.loopexit.split-lp = landingpad { ptr, i32 }
          catch ptr null
  br label %25

25:                                               ; preds = %.loopexit.split-lp, %.loopexit
  %lpad.phi = phi { ptr, i32 } [ %lpad.loopexit, %.loopexit ], [ %lpad.loopexit.split-lp, %.loopexit.split-lp ]
  %26 = extractvalue { ptr, i32 } %lpad.phi, 0
  tail call void @__clang_call_terminate(ptr %26) #12
  unreachable
}